; Function Attrs: mustprogress uwtable
define hidden void @_ZN4cvc58internal6theory9Valuation18setUnevaluatedKindENS0_4kind6Kind_tE(ptr noundef nonnull readonly align 8 captures(none) dereferenceable(8) %0, i32 noundef %1) local_unnamed_addr #4 align 2 {
  %3 = load ptr, ptr %0, align 8, !tbaa !3
  %4 = icmp eq ptr %3, null
  br i1 %4, label %_ZN4cvc58internal6theory9Valuation8getModelEv.exit.thread, label %_ZN4cvc58internal6theory9Valuation8getModelEv.exit

_ZN4cvc58internal6theory9Valuation8getModelEv.exit: ; preds = %2
  %5 = tail call noundef ptr @_ZN4cvc58internal12TheoryEngine8getModelEv(ptr noundef nonnull align 8 dereferenceable(1480) %3)
  %.not = icmp eq ptr %5, null
  br i1 %.not, label %_ZN4cvc58internal6theory9Valuation8getModelEv.exit.thread, label %6

6:                                                ; preds = %_ZN4cvc58internal6theory9Valuation8getModelEv.exit
  tail call void @_ZN4cvc58internal6theory11TheoryModel18setUnevaluatedKindENS0_4kind6Kind_tE(ptr noundef nonnull align 8 dereferenceable(968) %5, i32 noundef %1)
  br label %_ZN4cvc58internal6theory9Valuation8getModelEv.exit.thread

_ZN4cvc58internal6theory9Valuation8getModelEv.exit.thread: ; preds = %2, %6, %_ZN4cvc58internal6theory9Valuation8getModelEv.exit
  ret void
}